; Function Attrs: mustprogress uwtable
define void @_ZNK11StringTable29printStringTableStorageToFileEP8_IO_FILEiPKc(ptr noundef nonnull readonly align 8 captures(none) dereferenceable(24) %0, ptr noundef %1, i32 noundef %2, ptr noundef %3) local_unnamed_addr #0 align 2 {
  %5 = getelementptr inbounds nuw i8, ptr %0, i64 8
  %6 = load ptr, ptr %5, align 8, !tbaa !81
  %7 = load ptr, ptr %0, align 8, !tbaa !76
  %8 = ptrtoint ptr %6 to i64
  %9 = ptrtoint ptr %7 to i64
  %10 = sub i64 %8, %9
  %11 = lshr exact i64 %10, 5
  %12 = trunc i64 %11 to i32
  %13 = tail call noundef i32 @_Z10pr_title_nP8_IO_FILEiPKci(ptr noundef %1, i32 noundef %2, ptr noundef %3, i32 noundef %12)
  %14 = load ptr, ptr %0, align 8, !tbaa !85
  %15 = load ptr, ptr %5, align 8, !tbaa !85
  %.not14 = icmp eq ptr %14, %15
  br i1 %.not14, label %._crit_edge, label %.lr.ph

._crit_edge:                                      ; preds = %.lr.ph, %4
  ret void

.lr.ph:                                           ; preds = %4, %.lr.ph
  %.016 = phi i32 [ %17, %.lr.ph ], [ 0, %4 ]
  %.sroa.011.015 = phi ptr [ %20, %.lr.ph ], [ %14, %4 ]
  %16 = tail call noundef i32 @_Z9pr_indentP8_IO_FILEi(ptr noundef %1, i32 noundef %13)
  %17 = add nuw nsw i32 %.016, 1
  %18 = load ptr, ptr %.sroa.011.015, align 8, !tbaa !19
  %19 = tail call i32 (ptr, ptr, ...) @fprintf(ptr noundef %1, ptr noundef nonnull @.str.3, ptr noundef %3, i32 noundef %.016, ptr noundef %18) #25
  %20 = getelementptr inbounds nuw i8, ptr %.sroa.011.015, i64 32
  %.not = icmp eq ptr %20, %15
  br i1 %.not, label %._crit_edge, label %.lr.ph
}